; ModuleID = '27/1308.c'
source_filename = "27/1308.c"
target datalayout = "e-m:e-p270:32:32-p271:32:32-p272:64:64-i64:64-f80:128-n8:16:32:64-S128"
target triple = "x86_64-pc-linux-gnu"

@.str = private unnamed_addr constant [3 x i8] c"%d\00", align 1
@.str.1 = private unnamed_addr constant [10 x i8] c"%lf%lf%lf\00", align 1
@.str.2 = private unnamed_addr constant [19 x i8] c"x1=%.5lf;x2=%.5lf\0A\00", align 1
@.str.3 = private unnamed_addr constant [13 x i8] c"x1=x2=%.5lf\0A\00", align 1
@.str.4 = private unnamed_addr constant [35 x i8] c"x1=-%.5lf+%.5lfi;x2=-%.5lf-%.5lfi\0A\00", align 1

; Function Attrs: noinline nounwind uwtable
define dso_local i32 @main() #0 {
  %1 = alloca i32, align 4
  %2 = alloca i32, align 4
  %3 = alloca i32, align 4
  %4 = alloca double, align 8
  %5 = alloca double, align 8
  %6 = alloca double, align 8
  %7 = alloca double, align 8
  %8 = alloca double, align 8
  %9 = alloca double, align 8
  store i32 0, i32* %1, align 4
  %10 = call i32 (i8*, ...) @__isoc99_scanf(i8* getelementptr inbounds ([3 x i8], [3 x i8]* @.str, i64 0, i64 0), i32* %2)
  store i32 0, i32* %3, align 4
  br label %11

11:                                               ; preds = %104, %0
  %12 = load i32, i32* %3, align 4
  %13 = load i32, i32* %2, align 4
  %14 = icmp slt i32 %12, %13
  br i1 %14, label %15, label %107

15:                                               ; preds = %11
  %16 = call i32 (i8*, ...) @__isoc99_scanf(i8* getelementptr inbounds ([10 x i8], [10 x i8]* @.str.1, i64 0, i64 0), double* %4, double* %5, double* %6)
  %17 = load double, double* %5, align 8
  %18 = load double, double* %5, align 8
  %19 = fmul double %17, %18
  %20 = load double, double* %4, align 8
  %21 = fmul double 4.000000e+00, %20
  %22 = load double, double* %6, align 8
  %23 = fmul double %21, %22
  %24 = fsub double %19, %23
  %25 = fcmp ogt double %24, 0.000000e+00
  br i1 %25, label %26, label %60

26:                                               ; preds = %15
  %27 = load double, double* %5, align 8
  %28 = fneg double %27
  %29 = load double, double* %5, align 8
  %30 = load double, double* %5, align 8
  %31 = fmul double %29, %30
  %32 = load double, double* %4, align 8
  %33 = fmul double 4.000000e+00, %32
  %34 = load double, double* %6, align 8
  %35 = fmul double %33, %34
  %36 = fsub double %31, %35
  %37 = call double @sqrt(double %36) #3
  %38 = fadd double %28, %37
  %39 = load double, double* %4, align 8
  %40 = fmul double 2.000000e+00, %39
  %41 = fdiv double %38, %40
  store double %41, double* %7, align 8
  %42 = load double, double* %5, align 8
  %43 = fneg double %42
  %44 = load double, double* %5, align 8
  %45 = load double, double* %5, align 8
  %46 = fmul double %44, %45
  %47 = load double, double* %4, align 8
  %48 = fmul double 4.000000e+00, %47
  %49 = load double, double* %6, align 8
  %50 = fmul double %48, %49
  %51 = fsub double %46, %50
  %52 = call double @sqrt(double %51) #3
  %53 = fsub double %43, %52
  %54 = load double, double* %4, align 8
  %55 = fmul double 2.000000e+00, %54
  %56 = fdiv double %53, %55
  store double %56, double* %8, align 8
  %57 = load double, double* %7, align 8
  %58 = load double, double* %8, align 8
  %59 = call i32 (i8*, ...) @printf(i8* getelementptr inbounds ([19 x i8], [19 x i8]* @.str.2, i64 0, i64 0), double %57, double %58)
  br label %103

60:                                               ; preds = %15
  %61 = load double, double* %5, align 8
  %62 = load double, double* %5, align 8
  %63 = fmul double %61, %62
  %64 = load double, double* %4, align 8
  %65 = fmul double 4.000000e+00, %64
  %66 = load double, double* %6, align 8
  %67 = fmul double %65, %66
  %68 = fsub double %63, %67
  %69 = fcmp oeq double %68, 0.000000e+00
  br i1 %69, label %70, label %78

70:                                               ; preds = %60
  %71 = load double, double* %5, align 8
  %72 = fneg double %71
  %73 = load double, double* %4, align 8
  %74 = fmul double 2.000000e+00, %73
  %75 = fdiv double %72, %74
  store double %75, double* %7, align 8
  %76 = load double, double* %7, align 8
  %77 = call i32 (i8*, ...) @printf(i8* getelementptr inbounds ([13 x i8], [13 x i8]* @.str.3, i64 0, i64 0), double %76)
  br label %102

78:                                               ; preds = %60
  %79 = load double, double* %4, align 8
  %80 = fmul double 4.000000e+00, %79
  %81 = load double, double* %6, align 8
  %82 = fmul double %80, %81
  %83 = load double, double* %5, align 8
  %84 = load double, double* %5, align 8
  %85 = fmul double %83, %84
  %86 = fsub double %82, %85
  %87 = call double @sqrt(double %86) #3
  %88 = load double, double* %4, align 8
  %89 = fmul double 2.000000e+00, %88
  %90 = fdiv double %87, %89
  store double %90, double* %9, align 8
  %91 = load double, double* %5, align 8
  %92 = load double, double* %4, align 8
  %93 = fmul double 2.000000e+00, %92
  %94 = fdiv double %91, %93
  %95 = load double, double* %9, align 8
  %96 = load double, double* %5, align 8
  %97 = load double, double* %4, align 8
  %98 = fmul double 2.000000e+00, %97
  %99 = fdiv double %96, %98
  %100 = load double, double* %9, align 8
  %101 = call i32 (i8*, ...) @printf(i8* getelementptr inbounds ([35 x i8], [35 x i8]* @.str.4, i64 0, i64 0), double %94, double %95, double %99, double %100)
  br label %102

102:                                              ; preds = %78, %70
  br label %103

103:                                              ; preds = %102, %26
  br label %104

104:                                              ; preds = %103
  %105 = load i32, i32* %3, align 4
  %106 = add nsw i32 %105, 1
  store i32 %106, i32* %3, align 4
  br label %11

107:                                              ; preds = %11
  ret i32 0
}

declare dso_local i32 @__isoc99_scanf(i8*, ...) #1

; Function Attrs: nounwind
declare dso_local double @sqrt(double) #2

declare dso_local i32 @printf(i8*, ...) #1


!llvm.module.flags = !{!0}
!llvm.ident = !{!1}

!0 = !{i32 1, !"wchar_size", i32 4}
!1 = !{!"clang version 10.0.0-4ubuntu1 "}
